target datalayout = "e-m:e-p270:32:32-p271:32:32-p272:64:64-i64:64-i128:128-f80:128-n8:16:32:64-S128"
target triple = "x86_64-pc-linux-gnu"

%class.UrlLinkDelegate = type { %class.QStyledItemDelegate, i32, ptr }
%class.QStyledItemDelegate = type { %class.QAbstractItemDelegate }
%class.QAbstractItemDelegate = type { %class.QObject }
%class.QObject = type { ptr, %class.QScopedPointer }
%class.QScopedPointer = type { ptr }

; Function Attrs: mustprogress nounwind null_pointer_is_valid sspstrong uwtable
define void @_ZN15UrlLinkDelegateD2Ev(ptr noundef align 8 dereferenceable_or_null(32) %0) unnamed_addr #5 align 2 {
  %2 = alloca ptr, align 8
  store ptr %0, ptr %2, align 8
  %3 = load ptr, ptr %2, align 8
  store ptr getelementptr inbounds inrange(-16, 192) ({ [26 x ptr] }, ptr @_ZTV15UrlLinkDelegate, i32 0, i32 0, i32 2), ptr %3, align 8
  %4 = getelementptr inbounds nuw %class.UrlLinkDelegate, ptr %3, i32 0, i32 2
  %5 = load ptr, ptr %4, align 8
  %6 = icmp eq ptr %5, null
  br i1 %6, label %8, label %7

7:                                                ; preds = %1
  call void @_ZN18QRegularExpressionD1Ev(ptr noundef align 8 dereferenceable_or_null(8) %5) #12
  call void @_ZdlPvm(ptr noundef %5, i64 noundef 8) #11
  br label %8

8:                                                ; preds = %7, %1
  call void @_ZN19QStyledItemDelegateD2Ev(ptr noundef align 8 dereferenceable_or_null(16) %3) #12
  ret void
}