; Function Attrs: mustprogress nounwind null_pointer_is_valid sspstrong uwtable
define void @_ZN15UrlLinkDelegateD2Ev(ptr noundef align 8 dereferenceable_or_null(32) initializes((0, 8)) %0) unnamed_addr #5 align 2 {
  store ptr getelementptr inbounds nuw inrange(-16, 192) (i8, ptr @_ZTV15UrlLinkDelegate, i64 16), ptr %0, align 8
  %2 = getelementptr inbounds nuw i8, ptr %0, i64 24
  %3 = load ptr, ptr %2, align 8
  %4 = icmp eq ptr %3, null
  br i1 %4, label %6, label %5

5:                                                ; preds = %1
  tail call void @_ZN18QRegularExpressionD1Ev(ptr noundef nonnull align 8 dereferenceable_or_null(8) %3) #12
  tail call void @_ZdlPvm(ptr noundef nonnull %3, i64 noundef 8) #11
  br label %6

6:                                                ; preds = %5, %1
  tail call void @_ZN19QStyledItemDelegateD2Ev(ptr noundef align 8 dereferenceable_or_null(16) %0) #12
  ret void
}